(lp1
(lp2
S'england (the album) '
p3
aS'england'
p4
aa(lp5
S'england (british postage stamps) '
p6
aS'2006 british postage stamps england '
p7
aS'england'
p8
aag2
ag5
ag2
ag5
ag2
ag5
a(lp9
S'scotland (the goodies) '
p10
aS'scotland'
p11
aa(lp12
S'new zealand national australian rules football team '
p13
aS'new zealand national australian rules football team '
p14
aS'new zealand falcons '
p15
aS'new zealand'
p16
aa(lp17
S'wine in new zealand '
p18
aS'new zealand wines '
p19
aS'wine from new zealand '
p20
aS'new zealand wine '
p21
aS'wines from new zealand '
p22
aS'new zealand wine '
p23
aS'new zealand wine '
p24
aS'new zealand'
p25
aag2
ag5
a(lp26
S'kanada '
p27
aS'acharya kanad '
p28
aS'canada'
p29
aa(lp30
S"pays d'en haut "
p31
aS'canada (new france) '
p32
aS'canada, new france '
p33
aS'canada'
p34
aa(lp35
S'ecclesiastical province of canada '
p36
aS'ecclesiastical province of canada '
p37
aS'canada'
p38
aag26
ag30
ag35
a(lp39
S'the wombles '
p40
aS'womble '
p41
aS'great uncle bulgaria '
p42
aS'madame cholet '
p43
aS'wombles of wimbledon '
p44
aS'orinoco '
p45
aS'tobermory '
p46
aS'wombles '
p47
aS'bulgaria'
p48
aag12
ag17
ag26
ag30
ag35
ag26
ag30
ag35
a(lp49
S'beach houses '
p50
aS'used to be '
p51
aS'used to be '
p52
aS'beach house '
p53
aS'norway'
p54
aag49
ag49
a(lp55
S'administrative divisions of peru '
p56
aS'per\xc3\xba '
p57
aS'republic of peru '
p58
aS'huallaga '
p59
aS'piruw '
p60
aS'peru templates '
p61
aS'el peru '
p62
aS'republic of per\xc3\xba '
p63
aS'peruvian '
p64
aS'peru-related lists '
p65
aS'peruano '
p66
aS'el per\xc3\xba '
p67
aS'peruvian republic '
p68
aS'peruvia '
p69
aS'etymology of peru '
p70
aS'p\xc3\xa9rou '
p71
aS'name of peru '
p72
aS'p\xc3\xa9ru '
p73
aS'per\xc3\xb9 '
p74
aS'iso 3166-1:pe '
p75
aS'wikiproject peru '
p76
aS'rep\xc3\xbablica del per\xc3\xba '
p77
aS'peru'
p78
aag55
ag2
ag5
ag2
ag5
a(lp79
S'australia (manic street preachers song) '
p80
aS'australia'
p81
aa(lp82
S'australia (board game) '
p83
aS'australia'
p84
aag2
ag5
a(lp85
S'dominion of pakistan '
p86
aS'dominion of pakistan '
p87
aS'united pakistan '
p88
aS'pakistan'
p89
aag9
ag9
ag9
a(lp90
S'southern african '
p91
aS'africa, southern '
p92
aS'cafreria '
p93
aS'southern africa '
p94
aS'southern-africa '
p95
aS'south africa'
p96
aag90
ag90
a(lp97
S'italian wine '
p98
aS'italy wines '
p99
aS'history of italian wine '
p100
aS'aria of chianti classico '
p101
aS'italian wine '
p102
aS'wine from italy '
p103
aS'wines from italy '
p104
aS'italy wine '
p105
aS'italian '
p106
aS'italians '
p107
aS'italian wines '
p108
aS'wine of italy '
p109
aS'salaparuta doc '
p110
aS'vini da tavola '
p111
aS'vino cotto '
p112
aS'italian wines '
p113
aS'italy'
p114
aag97
a(lp115
S'soviet hospital ship armenia '
p116
aS'ship armenia '
p117
aS'armenia'
p118
aa(lp119
S'gruppo editoriale armenia '
p120
aS'armenia'
p121
aa(lp122
S'spain (band) '
p123
aS'spain'
p124
aa(lp125
S'mainland netherlands '
p126
aS'european netherlands '
p127
aS'netherlands'
p128
aag9
ag9
ag9
ag9
ag122
ag55
ag2
ag5
ag97
ag122
ag26
ag30
ag35
ag26
ag30
ag35
ag26
ag30
ag35
ag85
a(lp129
S'irish warriors '
p130
aS'irish national australian rules football team '
p131
aS'ireland national australian rules football team '
p132
aS'ireland'
p133
aag97
ag2
ag5
ag26
ag30
ag35
ag26
ag30
ag35
ag26
ag30
ag35
ag115
ag119
ag26
ag30
ag35
ag26
ag30
ag35
ag2
ag5
ag2
ag5
ag2
ag5
ag2
ag5
ag39
ag26
ag30
ag35
ag2
ag5
ag2
ag5
ag2
ag5
a(lp134
S'jamaica ny '
p135
aS'jamaica, queens '
p136
aS'jamaica, n.y. '
p137
aS'jamaica, long island '
p138
aS'jamaica, queens county '
p139
aS'jamaica, new york '
p140
aS'jamaica, ny '
p141
aS'jamaica, queens, new york '
p142
aS'jamaica'
p143
aa(lp144
S'jamaica-beaver street '
p145
aS'jamaica (lirr station) '
p146
aS'jamaica station '
p147
aS'beaver street '
p148
aS'jamaica'
p149
aag9
ag9
ag9
ag12
ag17
ag26
ag30
ag35
ag26
ag30
ag35
ag26
ag30
ag35
ag12
ag17
ag97
ag26
ag30
ag35
ag26
ag30
ag35
ag79
ag82
ag79
ag82
ag79
ag82
ag79
ag82
ag2
ag5
ag26
ag30
ag35
ag125
ag125
ag2
ag5
ag39
ag39
ag39
ag9
ag9
ag9
ag90
ag125
ag129
ag125
ag125
a(lp150
S'mexico (album) '
p151
aS'mexico'
p152
aa(lp153
S'mexico (game) '
p154
aS'mexico'
p155
aag79
ag82
a(lp156
S'togo international '
p157
aS'togo'
p158
aag125
ag125
ag79
ag82
ag79
ag82
ag26
ag30
ag35
a(lp159
S'county of london '
p160
aS'county of london '
p161
aS'london'
p162
aa(lp163
S'london, ontario railway station '
p164
aS'london'
p165
aa(lp166
S'london (poem) '
p167
aS'london'
p168
aa(lp169
S'london (tv series) '
p170
aS'london'
p171
aa(lp172
S'city of london (uk parliament constituency) '
p173
aS'london'
p174
aa(lp175
S'london (disambiguation) '
p176
aS'london (heavy metal band) '
p177
aS'london'
p178
aa(lp179
S'rapparee, ilfracombe '
p180
aS'rapparee cove '
p181
aS'london'
p182
aa(lp183
S'brooklyn, oh '
p184
aS'un/locode:usbku '
p185
aS'brooklyn, oh '
p186
aS'brooklyn, oh '
p187
aS'brooklyn, ohio '
p188
aS'brooklyn'
p189
aag183
ag183
ag183
ag183
ag183
ag159
ag163
ag166
ag169
ag172
ag175
ag179
ag183
ag183
ag159
ag163
ag166
ag169
ag172
ag175
ag179
a(lp190
S'penn station '
p191
aS'rotunda of the pennsylvania railroad station '
p192
aS'pennsylvania station '
p193
aS'pittsburgh penn station '
p194
aS'union station (pittsburgh) '
p195
aS'pittsburgh union station '
p196
aS'pittsburgh'
p197
aag183
ag183
ag159
ag163
ag166
ag169
ag172
ag175
ag179
ag159
ag163
ag166
ag169
ag172
ag175
ag179
ag183
ag183
ag159
ag163
ag166
ag169
ag172
ag175
ag179
ag183
ag183
ag183
ag183
a(lp198
S'tulsa (film) '
p199
aS'tulsa'
p200
aag183
ag183
a(lp201
S'lincoln, ne '
p202
aS'irving middle school nebraska '
p203
aS'capital of nebraska '
p204
aS'irving middle school '
p205
aS'east lincoln, nebraska '
p206
aS'nebraska lincoln '
p207
aS'lincoln, nb. '
p208
aS'walton, nebraska '
p209
aS'lincoln daily star '
p210
aS'un/locode:uslnk '
p211
aS'lincoln, nb '
p212
aS'downtown lincoln, nebraska '
p213
aS'lincoln '
p214
aS'lincoln, ne '
p215
aS'havelock, nebraska '
p216
aS'lancaster, nebraska '
p217
aS'west lincoln, nebraska '
p218
aS'lincoln nebraska '
p219
aS'lincoln ne '
p220
aS'cathedral of the risen christ school '
p221
aS'lincoln, nebraska'
p222
aa(lp223
S'singer'
p224
aag223
ag223
ag223
a(lp225
S'f-ray '
p226
aS"list of professor farnsworth's inventions "
p227
aS'good news, everyone! '
p228
aS'professer hubert farnsworth '
p229
aS"professor farnsworth's inventions "
p230
aS'hubert farnsworth '
p231
aS'professor farnsworth '
p232
aS'professer farnsworth '
p233
aS"list of the professor's inventions in futurama "
p234
aS'professor hubert farnsworth '
p235
aS'professor hubert j. farnsworth '
p236
aS'relative box '
p237
aS'hubert j. farnsworth '
p238
aS'professor'
p239
aa(lp240
S'academic department '
p241
aS'academic departments '
p242
aS'professor'
p243
aa(lp244
S'prosh '
p245
aS'ship '
p246
aS'ship (comics) '
p247
aS'professor'
p248
aa(lp249
S'singers '
p250
aS'singers '
p251
aS'singer '
p252
aS'singer-songwriters '
p253
aS'singer-songwriter'
p254
aag249
a(lp255
S'brooklyn tech high school '
p256
aS'bthsnews.org '
p257
aS'bthsnews.org '
p258
aS'bths math team '
p259
aS'bthsnews '
p260
aS'brooklyn technical high school '
p261
aS'bthsnews '
p262
aS'brooklyn tech highschool '
p263
aS'brooklyn tech '
p264
aS'engineer'
p265
aa(lp266
S'rational temperament '
p267
aS'nt '
p268
aS'coordinator '
p269
aS'engineer'
p270
aa(lp271
S'engineering degree '
p272
aS"engineer's degree "
p273
aS'engineer degree '
p274
aS'engineering degree '
p275
aS'engineers degree '
p276
aS'engineer'
p277
aa(lp278
S'asghar ali engineer '
p279
aS'asgharali engineer '
p280
aS'engineer'
p281
aa(lp282
S'certified novell instructor '
p283
aS'certified novell engineer '
p284
aS'engineer'
p285
aa(lp286
S'farokh engineer '
p287
aS'faroukh engineer '
p288
aS'engineer'
p289
aa(lp290
S'the engineer '
p291
aS'engineer (comics) '
p292
aS'engineer'
p293
aa(lp294
S'engineers '
p295
aS'engineers (band) '
p296
aS'engineer'
p297
aa(lp298
S'stationary engineering '
p299
aS'operating engineer '
p300
aS'power engineer '
p301
aS'operating engineers '
p302
aS'stationary engineer '
p303
aS'stationary engineers '
p304
aS'engineer'
p305
aa(lp306
S'engineer (technical fest) '
p307
aS'engineer'
p308
aa(lp309
S'air marshal engineer '
p310
aS'aspy engineer '
p311
aS'engineer'
p312
aa(lp313
S'engineering officer '
p314
aS'engineering officer '
p315
aS'engineering officers '
p316
aS'engineer officer '
p317
aS'engineer'
p318
aag223
ag223
ag223
ag223
ag223
ag223
ag223
ag223
ag223
ag223
a(lp319
S'junior designer '
p320
aS'junior designers '
p321
aS'junior designer '
p322
aS'designers '
p323
aS'designer'
p324
aa(lp325
S'judge (band) '
p326
aS'judge'
p327
aa(lp328
S'hosono fujihiko '
p329
aS'fujihiko hosono '
p330
aS'judge'
p331
aag223
ag223
ag223
ag223
a(lp332
S'composer'
p333
aag223
ag332
ag223
ag332
ag332
a(lp334
S'docents '
p335
aS'dotsent '
p336
aS'dozent '
p337
aS'docent '
p338
aS'lecturer'
p339
aag223
ag223
ag223
ag223
ag223
ag223
ag332
ag332
ag332
ag332
ag249
ag249
ag249
ag249
ag249
a(lp340
S'modelistlik '
p341
aS'clothing design '
p342
aS'high fashion '
p343
aS'modelist '
p344
aS'fashion design '
p345
aS'fashion icon '
p346
aS'fashion label '
p347
aS'a fashion designers job '
p348
aS'a history of fashion design '
p349
aS'list of fashion models '
p350
aS'fashion stylists '
p351
aS'zarouvian '
p352
aS'wardrobe stylist '
p353
aS'fashion houses '
p354
aS'stilist '
p355
aS'fashion house '
p356
aS'fashion consultant '
p357
aS'fashion design '
p358
aS'image consultant '
p359
aS'stilistik '
p360
aS'stilistlik '
p361
aS'clothing designer '
p362
aS'fashion designer '
p363
aS'fashion icons '
p364
aS'fashion designing '
p365
aS'fashion designer'
p366
aag223
ag223
a(lp367
S'comic artists '
p368
aS'comics artist '
p369
aS'comics artists '
p370
aS'comic artist '
p371
aS'comics artists '
p372
aS'cartoonist'
p373
aag367
ag225
ag240
ag244
ag223
a(lp374
S'list of comedians '
p375
aS'comedy performer '
p376
aS'comedians '
p377
aS'comedians '
p378
aS'comedienne '
p379
aS'comedian'
p380
aa(lp381
S'comedian (film) '
p382
aS'comedian'
p383
aag223
ag223
a(lp384
S'television directing '
p385
aS'television director '
p386
aS'television directors '
p387
aS'tv director '
p388
aS'television director '
p389
aS'tv director'
p390
aag384
ag249
ag249
ag249
ag249
ag223
ag223
ag223
a(lp391
S'movement for democracy in liberia '
p392
aS'model'
p393
aa(lp394
S'models '
p395
aS'models '
p396
aS'model '
p397
aS'model'
p398
aag391
ag394
a(lp399
S'publishing companies '
p400
aS'publishing companies '
p401
aS'publishing'
p402
aag225
ag240
ag244
ag225
ag240
ag244
a(lp403
S'historians '
p404
aS'record keeping '
p405
aS'record keeper '
p406
aS'list of historians '
p407
aS'historians '
p408
aS'historian'
p409
aag403
ag223
a(lp410
S'lyricists '
p411
aS'singer-lyricist '
p412
aS'lyrist '
p413
aS'lyricist'
p414
aa(lp415
S'lyricists '
p416
aS'lyricists '
p417
aS'lyricist'
p418
aag403
ag403
a(lp419
S'mafioso (film) '
p420
aS'mafioso (1962 film) '
p421
aS'mafioso'
p422
aag325
ag328
ag325
ag328
ag332
ag223
ag223
ag249
a(lp423
S'plant science '
p424
aS'botanically '
p425
aS'botany templates '
p426
aS'phytonomy '
p427
aS'botanize '
p428
aS'botanical '
p429
aS'lists of plants '
p430
aS'medical botany '
p431
aS'botanization '
p432
aS'botany '
p433
aS'plant biology '
p434
aS'botany '
p435
aS'plant biology '
p436
aS'botanists '
p437
aS'plant sciences '
p438
aS'plant sciences '
p439
aS'botanics '
p440
aS'plant science '
p441
aS'botanical research '
p442
aS'phytology '
p443
aS'botanizing '
p444
aS'botanist'
p445
aag391
ag394
ag332
ag332
ag332
ag332
ag374
ag381
ag223
ag223
ag223
ag332
ag332
ag223
ag223
ag223
ag223
ag223
ag332
ag332
ag332
ag223
ag223
ag223
ag223
ag223
ag249
ag249
ag391
ag394
ag391
ag394
ag391
ag394
ag249
ag249
ag249
a(lp446
S'audio engineering'
p447
aa(lp448
S'sound technology '
p449
aS'audio engineering'
p450
aag446
ag448
ag446
ag448
ag223
ag223
ag332
ag223
ag223
ag223
ag410
ag415
ag410
ag415
ag410
ag415
a.